; ModuleID = '46/1940.c'
source_filename = "46/1940.c"
target datalayout = "e-m:e-p270:32:32-p271:32:32-p272:64:64-i64:64-f80:128-n8:16:32:64-S128"
target triple = "x86_64-pc-linux-gnu"

@.str = private unnamed_addr constant [5 x i8] c"%d%d\00", align 1
@.str.1 = private unnamed_addr constant [3 x i8] c"%d\00", align 1
@.str.2 = private unnamed_addr constant [4 x i8] c"%d\0A\00", align 1

; Function Attrs: noinline nounwind uwtable
define dso_local i32 @main() #0 {
  %1 = alloca i32, align 4
  %2 = alloca i32, align 4
  %3 = alloca i32, align 4
  %4 = alloca i32, align 4
  %5 = alloca i32, align 4
  %6 = alloca i32, align 4
  %7 = alloca i32, align 4
  %8 = alloca i32, align 4
  %9 = alloca [100 x [100 x i32]], align 16
  store i32 0, i32* %1, align 4
  store i32 0, i32* %7, align 4
  %10 = call i32 (i8*, ...) @__isoc99_scanf(i8* getelementptr inbounds ([5 x i8], [5 x i8]* @.str, i64 0, i64 0), i32* %2, i32* %3)
  store i32 0, i32* %4, align 4
  br label %11

11:                                               ; preds = %32, %0
  %12 = load i32, i32* %4, align 4
  %13 = load i32, i32* %2, align 4
  %14 = icmp slt i32 %12, %13
  br i1 %14, label %15, label %35

15:                                               ; preds = %11
  store i32 0, i32* %5, align 4
  br label %16

16:                                               ; preds = %28, %15
  %17 = load i32, i32* %5, align 4
  %18 = load i32, i32* %3, align 4
  %19 = icmp slt i32 %17, %18
  br i1 %19, label %20, label %31

20:                                               ; preds = %16
  %21 = load i32, i32* %4, align 4
  %22 = sext i32 %21 to i64
  %23 = getelementptr inbounds [100 x [100 x i32]], [100 x [100 x i32]]* %9, i64 0, i64 %22
  %24 = load i32, i32* %5, align 4
  %25 = sext i32 %24 to i64
  %26 = getelementptr inbounds [100 x i32], [100 x i32]* %23, i64 0, i64 %25
  %27 = call i32 (i8*, ...) @__isoc99_scanf(i8* getelementptr inbounds ([3 x i8], [3 x i8]* @.str.1, i64 0, i64 0), i32* %26)
  br label %28

28:                                               ; preds = %20
  %29 = load i32, i32* %5, align 4
  %30 = add nsw i32 %29, 1
  store i32 %30, i32* %5, align 4
  br label %16

31:                                               ; preds = %16
  br label %32

32:                                               ; preds = %31
  %33 = load i32, i32* %4, align 4
  %34 = add nsw i32 %33, 1
  store i32 %34, i32* %4, align 4
  br label %11

35:                                               ; preds = %11
  store i32 0, i32* %6, align 4
  br label %36

36:                                               ; preds = %162, %35
  %37 = load i32, i32* %6, align 4
  store i32 %37, i32* %4, align 4
  br label %38

38:                                               ; preds = %55, %36
  %39 = load i32, i32* %4, align 4
  %40 = load i32, i32* %3, align 4
  %41 = load i32, i32* %6, align 4
  %42 = sub nsw i32 %40, %41
  %43 = icmp slt i32 %39, %42
  br i1 %43, label %44, label %58

44:                                               ; preds = %38
  %45 = load i32, i32* %6, align 4
  %46 = sext i32 %45 to i64
  %47 = getelementptr inbounds [100 x [100 x i32]], [100 x [100 x i32]]* %9, i64 0, i64 %46
  %48 = load i32, i32* %4, align 4
  %49 = sext i32 %48 to i64
  %50 = getelementptr inbounds [100 x i32], [100 x i32]* %47, i64 0, i64 %49
  %51 = load i32, i32* %50, align 4
  %52 = call i32 (i8*, ...) @printf(i8* getelementptr inbounds ([4 x i8], [4 x i8]* @.str.2, i64 0, i64 0), i32 %51)
  %53 = load i32, i32* %7, align 4
  %54 = add nsw i32 %53, 1
  store i32 %54, i32* %7, align 4
  br label %55

55:                                               ; preds = %44
  %56 = load i32, i32* %4, align 4
  %57 = add nsw i32 %56, 1
  store i32 %57, i32* %4, align 4
  br label %38

58:                                               ; preds = %38
  %59 = load i32, i32* %7, align 4
  %60 = load i32, i32* %2, align 4
  %61 = load i32, i32* %3, align 4
  %62 = mul nsw i32 %60, %61
  %63 = icmp eq i32 %59, %62
  br i1 %63, label %64, label %65

64:                                               ; preds = %58
  br label %165

65:                                               ; preds = %58
  %66 = load i32, i32* %6, align 4
  %67 = add nsw i32 %66, 1
  store i32 %67, i32* %5, align 4
  br label %68

68:                                               ; preds = %88, %65
  %69 = load i32, i32* %5, align 4
  %70 = load i32, i32* %2, align 4
  %71 = load i32, i32* %6, align 4
  %72 = sub nsw i32 %70, %71
  %73 = icmp slt i32 %69, %72
  br i1 %73, label %74, label %91

74:                                               ; preds = %68
  %75 = load i32, i32* %5, align 4
  %76 = sext i32 %75 to i64
  %77 = getelementptr inbounds [100 x [100 x i32]], [100 x [100 x i32]]* %9, i64 0, i64 %76
  %78 = load i32, i32* %3, align 4
  %79 = load i32, i32* %6, align 4
  %80 = sub nsw i32 %78, %79
  %81 = sub nsw i32 %80, 1
  %82 = sext i32 %81 to i64
  %83 = getelementptr inbounds [100 x i32], [100 x i32]* %77, i64 0, i64 %82
  %84 = load i32, i32* %83, align 4
  %85 = call i32 (i8*, ...) @printf(i8* getelementptr inbounds ([4 x i8], [4 x i8]* @.str.2, i64 0, i64 0), i32 %84)
  %86 = load i32, i32* %7, align 4
  %87 = add nsw i32 %86, 1
  store i32 %87, i32* %7, align 4
  br label %88

88:                                               ; preds = %74
  %89 = load i32, i32* %5, align 4
  %90 = add nsw i32 %89, 1
  store i32 %90, i32* %5, align 4
  br label %68

91:                                               ; preds = %68
  %92 = load i32, i32* %7, align 4
  %93 = load i32, i32* %2, align 4
  %94 = load i32, i32* %3, align 4
  %95 = mul nsw i32 %93, %94
  %96 = icmp eq i32 %92, %95
  br i1 %96, label %97, label %98

97:                                               ; preds = %91
  br label %165

98:                                               ; preds = %91
  %99 = load i32, i32* %3, align 4
  %100 = sub nsw i32 %99, 2
  %101 = load i32, i32* %6, align 4
  %102 = sub nsw i32 %100, %101
  store i32 %102, i32* %4, align 4
  br label %103

103:                                              ; preds = %121, %98
  %104 = load i32, i32* %4, align 4
  %105 = load i32, i32* %6, align 4
  %106 = icmp sge i32 %104, %105
  br i1 %106, label %107, label %124

107:                                              ; preds = %103
  %108 = load i32, i32* %2, align 4
  %109 = load i32, i32* %6, align 4
  %110 = sub nsw i32 %108, %109
  %111 = sub nsw i32 %110, 1
  %112 = sext i32 %111 to i64
  %113 = getelementptr inbounds [100 x [100 x i32]], [100 x [100 x i32]]* %9, i64 0, i64 %112
  %114 = load i32, i32* %4, align 4
  %115 = sext i32 %114 to i64
  %116 = getelementptr inbounds [100 x i32], [100 x i32]* %113, i64 0, i64 %115
  %117 = load i32, i32* %116, align 4
  %118 = call i32 (i8*, ...) @printf(i8* getelementptr inbounds ([4 x i8], [4 x i8]* @.str.2, i64 0, i64 0), i32 %117)
  %119 = load i32, i32* %7, align 4
  %120 = add nsw i32 %119, 1
  store i32 %120, i32* %7, align 4
  br label %121

121:                                              ; preds = %107
  %122 = load i32, i32* %4, align 4
  %123 = add nsw i32 %122, -1
  store i32 %123, i32* %4, align 4
  br label %103

124:                                              ; preds = %103
  %125 = load i32, i32* %7, align 4
  %126 = load i32, i32* %2, align 4
  %127 = load i32, i32* %3, align 4
  %128 = mul nsw i32 %126, %127
  %129 = icmp eq i32 %125, %128
  br i1 %129, label %130, label %131

130:                                              ; preds = %124
  br label %165

131:                                              ; preds = %124
  %132 = load i32, i32* %2, align 4
  %133 = sub nsw i32 %132, 2
  %134 = load i32, i32* %6, align 4
  %135 = sub nsw i32 %133, %134
  store i32 %135, i32* %5, align 4
  br label %136

136:                                              ; preds = %151, %131
  %137 = load i32, i32* %5, align 4
  %138 = load i32, i32* %6, align 4
  %139 = icmp sgt i32 %137, %138
  br i1 %139, label %140, label %154

140:                                              ; preds = %136
  %141 = load i32, i32* %5, align 4
  %142 = sext i32 %141 to i64
  %143 = getelementptr inbounds [100 x [100 x i32]], [100 x [100 x i32]]* %9, i64 0, i64 %142
  %144 = load i32, i32* %6, align 4
  %145 = sext i32 %144 to i64
  %146 = getelementptr inbounds [100 x i32], [100 x i32]* %143, i64 0, i64 %145
  %147 = load i32, i32* %146, align 4
  %148 = call i32 (i8*, ...) @printf(i8* getelementptr inbounds ([4 x i8], [4 x i8]* @.str.2, i64 0, i64 0), i32 %147)
  %149 = load i32, i32* %7, align 4
  %150 = add nsw i32 %149, 1
  store i32 %150, i32* %7, align 4
  br label %151

151:                                              ; preds = %140
  %152 = load i32, i32* %5, align 4
  %153 = add nsw i32 %152, -1
  store i32 %153, i32* %5, align 4
  br label %136

154:                                              ; preds = %136
  %155 = load i32, i32* %7, align 4
  %156 = load i32, i32* %2, align 4
  %157 = load i32, i32* %3, align 4
  %158 = mul nsw i32 %156, %157
  %159 = icmp eq i32 %155, %158
  br i1 %159, label %160, label %161

160:                                              ; preds = %154
  br label %165

161:                                              ; preds = %154
  br label %162

162:                                              ; preds = %161
  %163 = load i32, i32* %6, align 4
  %164 = add nsw i32 %163, 1
  store i32 %164, i32* %6, align 4
  br label %36

165:                                              ; preds = %160, %130, %97, %64
  ret i32 0
}

declare dso_local i32 @__isoc99_scanf(i8*, ...) #1

declare dso_local i32 @printf(i8*, ...) #1


!llvm.module.flags = !{!0}
!llvm.ident = !{!1}

!0 = !{i32 1, !"wchar_size", i32 4}
!1 = !{!"clang version 10.0.0-4ubuntu1 "}
